; Function Attrs: nounwind uwtable
define void @Gia_Gen2CodeTest() local_unnamed_addr #0 {
  %1 = tail call noalias dereferenceable_or_null(16) ptr @malloc(i64 noundef 16) #28
  %2 = getelementptr inbounds nuw i8, ptr %1, i64 4
  store i32 0, ptr %2, align 4, !tbaa !11
  store i32 16, ptr %1, align 8, !tbaa !3
  %3 = tail call noalias dereferenceable_or_null(64) ptr @malloc(i64 noundef 64) #28
  %4 = getelementptr inbounds nuw i8, ptr %1, i64 8
  store ptr %3, ptr %4, align 8, !tbaa !10
  %5 = tail call i64 @time(ptr noundef null) #29
  %6 = trunc i64 %5 to i32
  tail call void @srand(i32 noundef %6) #29
  br label %7

7:                                                ; preds = %0, %Vec_IntPush.exit
  %8 = phi ptr [ %3, %0 ], [ %29, %Vec_IntPush.exit ]
  %.010 = phi i32 [ 0, %0 ], [ %33, %Vec_IntPush.exit ]
  %9 = tail call i32 @rand() #29
  %10 = and i32 %9, 1
  %11 = load i32, ptr %2, align 4, !tbaa !11
  %12 = load i32, ptr %1, align 8, !tbaa !3
  %13 = icmp eq i32 %11, %12
  br i1 %13, label %14, label %Vec_IntPush.exit

14:                                               ; preds = %7
  %15 = icmp slt i32 %11, 16
  br i1 %15, label %16, label %21

16:                                               ; preds = %14
  %.not9.i.i = icmp eq ptr %8, null
  br i1 %.not9.i.i, label %19, label %17

17:                                               ; preds = %16
  %18 = tail call dereferenceable_or_null(64) ptr @realloc(ptr noundef nonnull %8, i64 noundef 64) #30
  br label %Vec_IntPush.exit.sink.split

19:                                               ; preds = %16
  %20 = tail call noalias dereferenceable_or_null(64) ptr @malloc(i64 noundef 64) #28
  br label %Vec_IntPush.exit.sink.split

21:                                               ; preds = %14
  %22 = shl nuw nsw i32 %11, 1
  %.not9.i9.i = icmp eq ptr %8, null
  %23 = zext nneg i32 %22 to i64
  %24 = shl nuw nsw i64 %23, 2
  br i1 %.not9.i9.i, label %27, label %25

25:                                               ; preds = %21
  %26 = tail call ptr @realloc(ptr noundef nonnull %8, i64 noundef %24) #30
  br label %Vec_IntPush.exit.sink.split

27:                                               ; preds = %21
  %28 = tail call noalias ptr @malloc(i64 noundef %24) #28
  br label %Vec_IntPush.exit.sink.split

Vec_IntPush.exit.sink.split:                      ; preds = %25, %27, %17, %19
  %.sink13 = phi ptr [ %18, %17 ], [ %20, %19 ], [ %26, %25 ], [ %28, %27 ]
  %.sink = phi i32 [ 16, %17 ], [ 16, %19 ], [ %22, %25 ], [ %22, %27 ]
  store ptr %.sink13, ptr %4, align 8, !tbaa !10
  store i32 %.sink, ptr %1, align 8, !tbaa !3
  br label %Vec_IntPush.exit

Vec_IntPush.exit:                                 ; preds = %Vec_IntPush.exit.sink.split, %7
  %29 = phi ptr [ %8, %7 ], [ %.sink13, %Vec_IntPush.exit.sink.split ]
  %30 = add nsw i32 %11, 1
  store i32 %30, ptr %2, align 4, !tbaa !11
  %31 = sext i32 %11 to i64
  %32 = getelementptr inbounds i32, ptr %29, i64 %31
  store i32 %10, ptr %32, align 4, !tbaa !12
  %33 = add nuw nsw i32 %.010, 1
  %exitcond.not = icmp eq i32 %33, 4
  br i1 %exitcond.not, label %Vec_IntFree.exit, label %7, !llvm.loop !71

Vec_IntFree.exit:                                 ; preds = %Vec_IntPush.exit
  tail call void @Gia_Gen2CodePrint(i32 noundef 1, i32 noundef 2, ptr noundef nonnull %1)
  tail call void @free(ptr noundef nonnull %29) #29
  tail call void @free(ptr noundef nonnull %1) #29
  ret void
}